target datalayout = "e-m:e-p270:32:32-p271:32:32-p272:64:64-i64:64-i128:128-f80:128-n8:16:32:64-S128"
target triple = "x86_64-pc-linux-gnu"

%struct._pdo_stmt_t = type { ptr, ptr, [6 x i8], i16, ptr, ptr, ptr, ptr, i32, i32, %union.anon, ptr, ptr, ptr, i64, ptr, ptr, ptr, %struct._zend_object }
%union.anon = type { %struct.anon.0 }
%struct.anon.0 = type { %struct._zend_fcall_info_cache }
%struct._zend_fcall_info_cache = type { ptr, ptr, ptr, ptr, ptr }
%struct._zend_object = type { %struct._zend_refcounted_h, i32, i32, ptr, ptr, ptr, [1 x %struct._zval_struct] }
%struct._zend_refcounted_h = type { i32, %union.anon.1 }
%union.anon.1 = type { i32 }
%struct._zval_struct = type { %union._zend_value, %union.anon.3, %union.anon.6 }
%union._zend_value = type { i64 }
%union.anon.3 = type { i32 }
%union.anon.6 = type { i32 }
%struct.pdo_sqlite_stmt = type { ptr, ptr, i8 }
%struct.pdo_sqlite_db_handle = type { ptr, %struct.pdo_sqlite_error_info, ptr, ptr }
%struct.pdo_sqlite_error_info = type { ptr, i32, i32, ptr }

@.str = private unnamed_addr constant [114 x i8] c"/home/dtcxzyw/WorkSpace/Projects/compilers/llvm-opt-benchmark/bench/php/php-src/ext/pdo_sqlite/sqlite_statement.c\00", align 1

; Function Attrs: nounwind uwtable
define internal i32 @pdo_sqlite_stmt_execute(ptr noundef %0) #0 {
  %2 = alloca i32, align 4
  %3 = alloca ptr, align 8
  %4 = alloca ptr, align 8
  %5 = alloca i32, align 4
  store ptr %0, ptr %3, align 8, !tbaa !4
  call void @llvm.lifetime.start.p0(i64 8, ptr %4) #8
  %6 = load ptr, ptr %3, align 8, !tbaa !4
  %7 = getelementptr inbounds nuw %struct._pdo_stmt_t, ptr %6, i32 0, i32 1
  %8 = load ptr, ptr %7, align 8, !tbaa !9
  store ptr %8, ptr %4, align 8, !tbaa !25
  %9 = load ptr, ptr %3, align 8, !tbaa !4
  %10 = getelementptr inbounds nuw %struct._pdo_stmt_t, ptr %9, i32 0, i32 3
  %11 = load i16, ptr %10, align 2
  %12 = and i16 %11, 1
  %13 = zext i16 %12 to i32
  %14 = icmp ne i32 %13, 0
  br i1 %14, label %15, label %28

15:                                               ; preds = %1
  %16 = load ptr, ptr %4, align 8, !tbaa !25
  %17 = getelementptr inbounds nuw %struct.pdo_sqlite_stmt, ptr %16, i32 0, i32 2
  %18 = load i8, ptr %17, align 8
  %19 = lshr i8 %18, 1
  %20 = and i8 %19, 1
  %21 = zext i8 %20 to i32
  %22 = icmp ne i32 %21, 0
  br i1 %22, label %28, label %23

23:                                               ; preds = %15
  %24 = load ptr, ptr %4, align 8, !tbaa !25
  %25 = getelementptr inbounds nuw %struct.pdo_sqlite_stmt, ptr %24, i32 0, i32 1
  %26 = load ptr, ptr %25, align 8, !tbaa !26
  %27 = call i32 @sqlite3_reset(ptr noundef %26)
  br label %28

28:                                               ; preds = %23, %15, %1
  %29 = load ptr, ptr %4, align 8, !tbaa !25
  %30 = getelementptr inbounds nuw %struct.pdo_sqlite_stmt, ptr %29, i32 0, i32 2
  %31 = load i8, ptr %30, align 8
  %32 = and i8 %31, -3
  %33 = or i8 %32, 0
  store i8 %33, ptr %30, align 8
  %34 = load ptr, ptr %4, align 8, !tbaa !25
  %35 = getelementptr inbounds nuw %struct.pdo_sqlite_stmt, ptr %34, i32 0, i32 1
  %36 = load ptr, ptr %35, align 8, !tbaa !26
  %37 = call i32 @sqlite3_step(ptr noundef %36)
  switch i32 %37, label %79 [
    i32 100, label %38
    i32 101, label %49
    i32 1, label %73
    i32 21, label %78
    i32 5, label %78
  ]

38:                                               ; preds = %28
  %39 = load ptr, ptr %4, align 8, !tbaa !25
  %40 = getelementptr inbounds nuw %struct.pdo_sqlite_stmt, ptr %39, i32 0, i32 2
  %41 = load i8, ptr %40, align 8
  %42 = and i8 %41, -2
  %43 = or i8 %42, 1
  store i8 %43, ptr %40, align 8
  %44 = load ptr, ptr %3, align 8, !tbaa !4
  %45 = load ptr, ptr %4, align 8, !tbaa !25
  %46 = getelementptr inbounds nuw %struct.pdo_sqlite_stmt, ptr %45, i32 0, i32 1
  %47 = load ptr, ptr %46, align 8, !tbaa !26
  %48 = call i32 @sqlite3_data_count(ptr noundef %47)
  call void @php_pdo_stmt_set_column_count(ptr noundef %44, i32 noundef %48)
  store i32 1, ptr %2, align 4
  store i32 1, ptr %5, align 4
  br label %85

49:                                               ; preds = %28
  %50 = load ptr, ptr %3, align 8, !tbaa !4
  %51 = load ptr, ptr %4, align 8, !tbaa !25
  %52 = getelementptr inbounds nuw %struct.pdo_sqlite_stmt, ptr %51, i32 0, i32 1
  %53 = load ptr, ptr %52, align 8, !tbaa !26
  %54 = call i32 @sqlite3_column_count(ptr noundef %53)
  call void @php_pdo_stmt_set_column_count(ptr noundef %50, i32 noundef %54)
  %55 = load ptr, ptr %4, align 8, !tbaa !25
  %56 = getelementptr inbounds nuw %struct.pdo_sqlite_stmt, ptr %55, i32 0, i32 0
  %57 = load ptr, ptr %56, align 8, !tbaa !29
  %58 = getelementptr inbounds nuw %struct.pdo_sqlite_db_handle, ptr %57, i32 0, i32 0
  %59 = load ptr, ptr %58, align 8, !tbaa !30
  %60 = call i32 @sqlite3_changes(ptr noundef %59)
  %61 = sext i32 %60 to i64
  %62 = load ptr, ptr %3, align 8, !tbaa !4
  %63 = getelementptr inbounds nuw %struct._pdo_stmt_t, ptr %62, i32 0, i32 14
  store i64 %61, ptr %63, align 8, !tbaa !36
  %64 = load ptr, ptr %4, align 8, !tbaa !25
  %65 = getelementptr inbounds nuw %struct.pdo_sqlite_stmt, ptr %64, i32 0, i32 1
  %66 = load ptr, ptr %65, align 8, !tbaa !26
  %67 = call i32 @sqlite3_reset(ptr noundef %66)
  %68 = load ptr, ptr %4, align 8, !tbaa !25
  %69 = getelementptr inbounds nuw %struct.pdo_sqlite_stmt, ptr %68, i32 0, i32 2
  %70 = load i8, ptr %69, align 8
  %71 = and i8 %70, -3
  %72 = or i8 %71, 2
  store i8 %72, ptr %69, align 8
  store i32 1, ptr %2, align 4
  store i32 1, ptr %5, align 4
  br label %85

73:                                               ; preds = %28
  %74 = load ptr, ptr %4, align 8, !tbaa !25
  %75 = getelementptr inbounds nuw %struct.pdo_sqlite_stmt, ptr %74, i32 0, i32 1
  %76 = load ptr, ptr %75, align 8, !tbaa !26
  %77 = call i32 @sqlite3_reset(ptr noundef %76)
  br label %78

78:                                               ; preds = %28, %28, %73
  br label %79

79:                                               ; preds = %28, %78
  %80 = load ptr, ptr %3, align 8, !tbaa !4
  %81 = getelementptr inbounds nuw %struct._pdo_stmt_t, ptr %80, i32 0, i32 12
  %82 = load ptr, ptr %81, align 8, !tbaa !37
  %83 = load ptr, ptr %3, align 8, !tbaa !4
  %84 = call i32 @_pdo_sqlite_error(ptr noundef %82, ptr noundef %83, ptr noundef @.str, i32 noundef 70)
  store i32 0, ptr %2, align 4
  store i32 1, ptr %5, align 4
  br label %85

85:                                               ; preds = %79, %49, %38
  call void @llvm.lifetime.end.p0(i64 8, ptr %4) #8
  %86 = load i32, ptr %2, align 4
  ret i32 %86
}