; Function Attrs: nounwind uwtable
define internal range(i32 0, 2) i32 @pdo_sqlite_stmt_execute(ptr noundef %0) #0 {
  %2 = getelementptr inbounds nuw i8, ptr %0, i64 8
  %3 = load ptr, ptr %2, align 8, !tbaa !4
  %4 = getelementptr inbounds nuw i8, ptr %0, i64 22
  %5 = load i16, ptr %4, align 2
  %6 = and i16 %5, 1
  %.not = icmp eq i16 %6, 0
  br i1 %.not, label %15, label %7

7:                                                ; preds = %1
  %8 = getelementptr inbounds nuw i8, ptr %3, i64 16
  %9 = load i8, ptr %8, align 8
  %10 = and i8 %9, 2
  %.not18 = icmp eq i8 %10, 0
  br i1 %.not18, label %11, label %15

11:                                               ; preds = %7
  %12 = getelementptr inbounds nuw i8, ptr %3, i64 8
  %13 = load ptr, ptr %12, align 8, !tbaa !23
  %14 = tail call i32 @sqlite3_reset(ptr noundef %13) #6
  br label %15

15:                                               ; preds = %11, %7, %1
  %16 = getelementptr inbounds nuw i8, ptr %3, i64 16
  %17 = load i8, ptr %16, align 8
  %18 = and i8 %17, -3
  store i8 %18, ptr %16, align 8
  %19 = getelementptr inbounds nuw i8, ptr %3, i64 8
  %20 = load ptr, ptr %19, align 8, !tbaa !23
  %21 = tail call i32 @sqlite3_step(ptr noundef %20) #6
  switch i32 %21, label %42 [
    i32 100, label %22
    i32 101, label %27
    i32 1, label %39
  ]

22:                                               ; preds = %15
  %23 = load i8, ptr %16, align 8
  %24 = or i8 %23, 1
  store i8 %24, ptr %16, align 8
  %25 = load ptr, ptr %19, align 8, !tbaa !23
  %26 = tail call i32 @sqlite3_data_count(ptr noundef %25) #6
  tail call void @php_pdo_stmt_set_column_count(ptr noundef nonnull %0, i32 noundef %26) #6
  br label %46

27:                                               ; preds = %15
  %28 = load ptr, ptr %19, align 8, !tbaa !23
  %29 = tail call i32 @sqlite3_column_count(ptr noundef %28) #6
  tail call void @php_pdo_stmt_set_column_count(ptr noundef nonnull %0, i32 noundef %29) #6
  %30 = load ptr, ptr %3, align 8, !tbaa !26
  %31 = load ptr, ptr %30, align 8, !tbaa !27
  %32 = tail call i32 @sqlite3_changes(ptr noundef %31) #6
  %33 = sext i32 %32 to i64
  %34 = getelementptr inbounds nuw i8, ptr %0, i64 128
  store i64 %33, ptr %34, align 8, !tbaa !33
  %35 = load ptr, ptr %19, align 8, !tbaa !23
  %36 = tail call i32 @sqlite3_reset(ptr noundef %35) #6
  %37 = load i8, ptr %16, align 8
  %38 = or i8 %37, 2
  store i8 %38, ptr %16, align 8
  br label %46

39:                                               ; preds = %15
  %40 = load ptr, ptr %19, align 8, !tbaa !23
  %41 = tail call i32 @sqlite3_reset(ptr noundef %40) #6
  br label %42

42:                                               ; preds = %39, %15
  %43 = getelementptr inbounds nuw i8, ptr %0, i64 112
  %44 = load ptr, ptr %43, align 8, !tbaa !34
  %45 = tail call i32 @_pdo_sqlite_error(ptr noundef %44, ptr noundef nonnull %0, ptr noundef nonnull @.str, i32 noundef 70) #6
  br label %46

46:                                               ; preds = %42, %27, %22
  %.0 = phi i32 [ 0, %42 ], [ 1, %27 ], [ 1, %22 ]
  ret i32 %.0
}